target datalayout = "e-m:e-p270:32:32-p271:32:32-p272:64:64-i64:64-i128:128-f80:128-n8:16:32:64-S128"
target triple = "x86_64-pc-linux-gnu"

%"class.icu_77::number::impl::DecNum" = type { %"class.icu_77::MaybeStackHeaderAndArray", %struct.decContext, [4 x i8] }
%"class.icu_77::MaybeStackHeaderAndArray" = type <{ ptr, i32, i8, [3 x i8], %struct.decNumber, [34 x i8], [2 x i8] }>
%struct.decNumber = type { i32, i32, i8, [1 x i8] }
%struct.decContext = type { i32, i32, i32, i32, i32, i32, i8 }

; Function Attrs: mustprogress nounwind uwtable
define linkonce_odr noundef ptr @_ZNK6icu_7724MaybeStackHeaderAndArrayI9decNumbercLi34EE8getAliasEv(ptr noundef nonnull align 8 dereferenceable(62) %0) #0 comdat align 2 {
  %2 = alloca ptr, align 8
  store ptr %0, ptr %2, align 8, !tbaa !48
  %3 = load ptr, ptr %2, align 8
  %4 = getelementptr inbounds nuw %"class.icu_77::MaybeStackHeaderAndArray", ptr %3, i32 0, i32 0
  %5 = load ptr, ptr %4, align 8, !tbaa !50
  ret ptr %5
}

; Function Attrs: mustprogress uwtable
define noundef zeroext i1 @_ZNK6icu_776number4impl6DecNum6isZeroEv(ptr noundef nonnull align 8 dereferenceable(92) %0) #1 align 2 {
  %2 = alloca ptr, align 8
  store ptr %0, ptr %2, align 8, !tbaa !40
  %3 = load ptr, ptr %2, align 8
  %4 = getelementptr inbounds nuw %"class.icu_77::number::impl::DecNum", ptr %3, i32 0, i32 0
  %5 = call noundef ptr @_ZNK6icu_7724MaybeStackHeaderAndArrayI9decNumbercLi34EE8getAliasEv(ptr noundef nonnull align 8 dereferenceable(62) %4)
  %6 = getelementptr inbounds nuw %struct.decNumber, ptr %5, i32 0, i32 3
  %7 = getelementptr inbounds [1 x i8], ptr %6, i64 0, i64 0
  %8 = load i8, ptr %7, align 1, !tbaa !55
  %9 = zext i8 %8 to i32
  %10 = icmp eq i32 %9, 0
  br i1 %10, label %11, label %25

11:                                               ; preds = %1
  %12 = getelementptr inbounds nuw %"class.icu_77::number::impl::DecNum", ptr %3, i32 0, i32 0
  %13 = call noundef ptr @_ZNK6icu_7724MaybeStackHeaderAndArrayI9decNumbercLi34EE8getAliasEv(ptr noundef nonnull align 8 dereferenceable(62) %12)
  %14 = getelementptr inbounds nuw %struct.decNumber, ptr %13, i32 0, i32 0
  %15 = load i32, ptr %14, align 4, !tbaa !72
  %16 = icmp eq i32 %15, 1
  br i1 %16, label %17, label %25

17:                                               ; preds = %11
  %18 = getelementptr inbounds nuw %"class.icu_77::number::impl::DecNum", ptr %3, i32 0, i32 0
  %19 = call noundef ptr @_ZNK6icu_7724MaybeStackHeaderAndArrayI9decNumbercLi34EE8getAliasEv(ptr noundef nonnull align 8 dereferenceable(62) %18)
  %20 = getelementptr inbounds nuw %struct.decNumber, ptr %19, i32 0, i32 2
  %21 = load i8, ptr %20, align 4, !tbaa !69
  %22 = zext i8 %21 to i32
  %23 = and i32 %22, 112
  %24 = icmp eq i32 %23, 0
  br label %25

25:                                               ; preds = %17, %11, %1
  %26 = phi i1 [ false, %11 ], [ false, %1 ], [ %24, %17 ]
  ret i1 %26
}