; Function Attrs: mustprogress nofree norecurse nosync nounwind willreturn memory(read, inaccessiblemem: none) uwtable
define noundef zeroext i1 @_ZNK6icu_776number4impl6DecNum6isZeroEv(ptr noundef nonnull readonly align 8 captures(none) dereferenceable(92) %0) local_unnamed_addr #12 align 2 {
  %2 = load ptr, ptr %0, align 8, !tbaa !24
  %3 = getelementptr inbounds nuw i8, ptr %2, i64 9
  %4 = load i8, ptr %3, align 1, !tbaa !23
  %5 = icmp eq i8 %4, 0
  br i1 %5, label %6, label %14

6:                                                ; preds = %1
  %7 = load i32, ptr %2, align 4, !tbaa !39
  %8 = icmp eq i32 %7, 1
  br i1 %8, label %9, label %14

9:                                                ; preds = %6
  %10 = getelementptr inbounds nuw i8, ptr %2, i64 8
  %11 = load i8, ptr %10, align 4, !tbaa !38
  %12 = and i8 %11, 112
  %13 = icmp eq i8 %12, 0
  br label %14

14:                                               ; preds = %9, %6, %1
  %15 = phi i1 [ false, %6 ], [ false, %1 ], [ %13, %9 ]
  ret i1 %15
}